target datalayout = "e-m:e-p270:32:32-p271:32:32-p272:64:64-i64:64-i128:128-f80:128-n8:16:32:64-S128"
target triple = "x86_64-pc-linux-gnu"

; Function Attrs: inlinehint mustprogress nounwind uwtable
define internal noundef signext i8 @_ZL19isMatchAtCPBoundaryPKDsS0_S0_S0_(ptr noundef %0, ptr noundef %1, ptr noundef %2, ptr noundef %3) #2 {
  %5 = alloca i8, align 1
  %6 = alloca ptr, align 8
  %7 = alloca ptr, align 8
  %8 = alloca ptr, align 8
  %9 = alloca ptr, align 8
  store ptr %0, ptr %6, align 8, !tbaa !3
  store ptr %1, ptr %7, align 8, !tbaa !3
  store ptr %2, ptr %8, align 8, !tbaa !3
  store ptr %3, ptr %9, align 8, !tbaa !3
  %10 = load ptr, ptr %7, align 8, !tbaa !3
  %11 = load i16, ptr %10, align 2, !tbaa !10
  %12 = zext i16 %11 to i32
  %13 = and i32 %12, -1024
  %14 = icmp eq i32 %13, 56320
  br i1 %14, label %15, label %27

15:                                               ; preds = %4
  %16 = load ptr, ptr %6, align 8, !tbaa !3
  %17 = load ptr, ptr %7, align 8, !tbaa !3
  %18 = icmp ne ptr %16, %17
  br i1 %18, label %19, label %27

19:                                               ; preds = %15
  %20 = load ptr, ptr %7, align 8, !tbaa !3
  %21 = getelementptr inbounds i16, ptr %20, i64 -1
  %22 = load i16, ptr %21, align 2, !tbaa !10
  %23 = zext i16 %22 to i32
  %24 = and i32 %23, -1024
  %25 = icmp eq i32 %24, 55296
  br i1 %25, label %26, label %27

26:                                               ; preds = %19
  store i8 0, ptr %5, align 1
  br label %46

27:                                               ; preds = %19, %15, %4
  %28 = load ptr, ptr %8, align 8, !tbaa !3
  %29 = getelementptr inbounds i16, ptr %28, i64 -1
  %30 = load i16, ptr %29, align 2, !tbaa !10
  %31 = zext i16 %30 to i32
  %32 = and i32 %31, -1024
  %33 = icmp eq i32 %32, 55296
  br i1 %33, label %34, label %45

34:                                               ; preds = %27
  %35 = load ptr, ptr %8, align 8, !tbaa !3
  %36 = load ptr, ptr %9, align 8, !tbaa !3
  %37 = icmp ne ptr %35, %36
  br i1 %37, label %38, label %45

38:                                               ; preds = %34
  %39 = load ptr, ptr %8, align 8, !tbaa !3
  %40 = load i16, ptr %39, align 2, !tbaa !10
  %41 = zext i16 %40 to i32
  %42 = and i32 %41, -1024
  %43 = icmp eq i32 %42, 56320
  br i1 %43, label %44, label %45

44:                                               ; preds = %38
  store i8 0, ptr %5, align 1
  br label %46

45:                                               ; preds = %38, %34, %27
  store i8 1, ptr %5, align 1
  br label %46

46:                                               ; preds = %45, %44, %26
  %47 = load i8, ptr %5, align 1
  ret i8 %47
}

; Function Attrs: mustprogress uwtable
define ptr @u_memrchr_77(ptr noundef %0, i16 noundef zeroext %1, i32 noundef %2) #0 {
  %4 = alloca ptr, align 8
  %5 = alloca ptr, align 8
  %6 = alloca i16, align 2
  %7 = alloca i32, align 4
  %8 = alloca ptr, align 8
  %9 = alloca i32, align 4
  store ptr %0, ptr %5, align 8, !tbaa !3
  store i16 %1, ptr %6, align 2, !tbaa !10
  store i32 %2, ptr %7, align 4, !tbaa !8
  %10 = load i32, ptr %7, align 4, !tbaa !8
  %11 = icmp sle i32 %10, 0
  br i1 %11, label %12, label %13

12:                                               ; preds = %3
  store ptr null, ptr %4, align 8
  br label %44

13:                                               ; preds = %3
  %14 = load i16, ptr %6, align 2, !tbaa !10
  %15 = zext i16 %14 to i32
  %16 = and i32 %15, -2048
  %17 = icmp eq i32 %16, 55296
  br i1 %17, label %18, label %22

18:                                               ; preds = %13
  %19 = load ptr, ptr %5, align 8, !tbaa !3
  %20 = load i32, ptr %7, align 4, !tbaa !8
  %21 = call ptr @u_strFindLast_77(ptr noundef %19, i32 noundef %20, ptr noundef %6, i32 noundef 1)
  store ptr %21, ptr %4, align 8
  br label %44

22:                                               ; preds = %13
  call void @llvm.lifetime.start.p0(i64 8, ptr %8) #7
  %23 = load ptr, ptr %5, align 8, !tbaa !3
  %24 = load i32, ptr %7, align 4, !tbaa !8
  %25 = sext i32 %24 to i64
  %26 = getelementptr inbounds i16, ptr %23, i64 %25
  store ptr %26, ptr %8, align 8, !tbaa !3
  br label %27

27:                                               ; preds = %38, %22
  %28 = load ptr, ptr %8, align 8, !tbaa !3
  %29 = getelementptr inbounds i16, ptr %28, i32 -1
  store ptr %29, ptr %8, align 8, !tbaa !3
  %30 = load i16, ptr %29, align 2, !tbaa !10
  %31 = zext i16 %30 to i32
  %32 = load i16, ptr %6, align 2, !tbaa !10
  %33 = zext i16 %32 to i32
  %34 = icmp eq i32 %31, %33
  br i1 %34, label %35, label %37

35:                                               ; preds = %27
  %36 = load ptr, ptr %8, align 8, !tbaa !3
  store ptr %36, ptr %4, align 8
  store i32 1, ptr %9, align 4
  br label %43

37:                                               ; preds = %27
  br label %38

38:                                               ; preds = %37
  %39 = load ptr, ptr %5, align 8, !tbaa !3
  %40 = load ptr, ptr %8, align 8, !tbaa !3
  %41 = icmp ne ptr %39, %40
  br i1 %41, label %27, label %42, !llvm.loop !27

42:                                               ; preds = %38
  store ptr null, ptr %4, align 8
  store i32 1, ptr %9, align 4
  br label %43

43:                                               ; preds = %42, %35
  call void @llvm.lifetime.end.p0(i64 8, ptr %8) #7
  br label %44

44:                                               ; preds = %43, %18, %12
  %45 = load ptr, ptr %4, align 8
  ret ptr %45
}

; Function Attrs: mustprogress uwtable
define ptr @u_strrchr_77(ptr noundef %0, i16 noundef zeroext %1) #0 {
  %3 = alloca ptr, align 8
  %4 = alloca ptr, align 8
  %5 = alloca i16, align 2
  %6 = alloca ptr, align 8
  %7 = alloca i16, align 2
  store ptr %0, ptr %4, align 8, !tbaa !3
  store i16 %1, ptr %5, align 2, !tbaa !10
  %8 = load i16, ptr %5, align 2, !tbaa !10
  %9 = zext i16 %8 to i32
  %10 = and i32 %9, -2048
  %11 = icmp eq i32 %10, 55296
  br i1 %11, label %12, label %15

12:                                               ; preds = %2
  %13 = load ptr, ptr %4, align 8, !tbaa !3
  %14 = call ptr @u_strFindLast_77(ptr noundef %13, i32 noundef -1, ptr noundef %5, i32 noundef 1)
  store ptr %14, ptr %3, align 8
  br label %34

15:                                               ; preds = %2
  call void @llvm.lifetime.start.p0(i64 8, ptr %6) #7
  store ptr null, ptr %6, align 8, !tbaa !3
  call void @llvm.lifetime.start.p0(i64 2, ptr %7) #7
  br label %16

16:                                               ; preds = %31, %15
  %17 = load ptr, ptr %4, align 8, !tbaa !3
  %18 = load i16, ptr %17, align 2, !tbaa !10
  store i16 %18, ptr %7, align 2, !tbaa !10
  %19 = zext i16 %18 to i32
  %20 = load i16, ptr %5, align 2, !tbaa !10
  %21 = zext i16 %20 to i32
  %22 = icmp eq i32 %19, %21
  br i1 %22, label %23, label %25

23:                                               ; preds = %16
  %24 = load ptr, ptr %4, align 8, !tbaa !3
  store ptr %24, ptr %6, align 8, !tbaa !3
  br label %25

25:                                               ; preds = %23, %16
  %26 = load i16, ptr %7, align 2, !tbaa !10
  %27 = zext i16 %26 to i32
  %28 = icmp eq i32 %27, 0
  br i1 %28, label %29, label %31

29:                                               ; preds = %25
  %30 = load ptr, ptr %6, align 8, !tbaa !3
  store ptr %30, ptr %3, align 8
  call void @llvm.lifetime.end.p0(i64 2, ptr %7) #7
  call void @llvm.lifetime.end.p0(i64 8, ptr %6) #7
  br label %34

31:                                               ; preds = %25
  %32 = load ptr, ptr %4, align 8, !tbaa !3
  %33 = getelementptr inbounds nuw i16, ptr %32, i32 1
  store ptr %33, ptr %4, align 8, !tbaa !3
  br label %16, !llvm.loop !26

34:                                               ; preds = %29, %12
  %35 = load ptr, ptr %3, align 8
  ret ptr %35
}

; Function Attrs: mustprogress nounwind uwtable
define i32 @u_strlen_77(ptr noundef %0) #3 {
  %2 = alloca ptr, align 8
  %3 = alloca ptr, align 8
  store ptr %0, ptr %2, align 8, !tbaa !3
  call void @llvm.lifetime.start.p0(i64 8, ptr %3) #7
  %4 = load ptr, ptr %2, align 8, !tbaa !3
  store ptr %4, ptr %3, align 8, !tbaa !3
  br label %5

5:                                                ; preds = %10, %1
  %6 = load ptr, ptr %3, align 8, !tbaa !3
  %7 = load i16, ptr %6, align 2, !tbaa !10
  %8 = zext i16 %7 to i32
  %9 = icmp ne i32 %8, 0
  br i1 %9, label %10, label %13

10:                                               ; preds = %5
  %11 = load ptr, ptr %3, align 8, !tbaa !3
  %12 = getelementptr inbounds nuw i16, ptr %11, i32 1
  store ptr %12, ptr %3, align 8, !tbaa !3
  br label %5, !llvm.loop !20

13:                                               ; preds = %5
  %14 = load ptr, ptr %3, align 8, !tbaa !3
  %15 = load ptr, ptr %2, align 8, !tbaa !3
  %16 = ptrtoint ptr %14 to i64
  %17 = ptrtoint ptr %15 to i64
  %18 = sub i64 %16, %17
  %19 = sdiv exact i64 %18, 2
  %20 = trunc i64 %19 to i32
  call void @llvm.lifetime.end.p0(i64 8, ptr %3) #7
  ret i32 %20
}

; Function Attrs: mustprogress uwtable
define ptr @u_strFindLast_77(ptr noundef %0, i32 noundef %1, ptr noundef %2, i32 noundef %3) #0 {
  %5 = alloca ptr, align 8
  %6 = alloca ptr, align 8
  %7 = alloca i32, align 4
  %8 = alloca ptr, align 8
  %9 = alloca i32, align 4
  %10 = alloca ptr, align 8
  %11 = alloca ptr, align 8
  %12 = alloca ptr, align 8
  %13 = alloca ptr, align 8
  %14 = alloca ptr, align 8
  %15 = alloca i16, align 2
  %16 = alloca i16, align 2
  %17 = alloca i32, align 4
  store ptr %0, ptr %6, align 8, !tbaa !3
  store i32 %1, ptr %7, align 4, !tbaa !8
  store ptr %2, ptr %8, align 8, !tbaa !3
  store i32 %3, ptr %9, align 4, !tbaa !8
  call void @llvm.lifetime.start.p0(i64 8, ptr %10) #7
  call void @llvm.lifetime.start.p0(i64 8, ptr %11) #7
  call void @llvm.lifetime.start.p0(i64 8, ptr %12) #7
  call void @llvm.lifetime.start.p0(i64 8, ptr %13) #7
  call void @llvm.lifetime.start.p0(i64 8, ptr %14) #7
  call void @llvm.lifetime.start.p0(i64 2, ptr %15) #7
  call void @llvm.lifetime.start.p0(i64 2, ptr %16) #7
  %18 = load ptr, ptr %8, align 8, !tbaa !3
  %19 = icmp eq ptr %18, null
  br i1 %19, label %23, label %20

20:                                               ; preds = %4
  %21 = load i32, ptr %9, align 4, !tbaa !8
  %22 = icmp slt i32 %21, -1
  br i1 %22, label %23, label %25

23:                                               ; preds = %20, %4
  %24 = load ptr, ptr %6, align 8, !tbaa !3
  store ptr %24, ptr %5, align 8
  store i32 1, ptr %17, align 4
  br label %144

25:                                               ; preds = %20
  %26 = load ptr, ptr %6, align 8, !tbaa !3
  %27 = icmp eq ptr %26, null
  br i1 %27, label %31, label %28

28:                                               ; preds = %25
  %29 = load i32, ptr %7, align 4, !tbaa !8
  %30 = icmp slt i32 %29, -1
  br i1 %30, label %31, label %32

31:                                               ; preds = %28, %25
  store ptr null, ptr %5, align 8
  store i32 1, ptr %17, align 4
  br label %144

32:                                               ; preds = %28
  %33 = load i32, ptr %9, align 4, !tbaa !8
  %34 = icmp slt i32 %33, 0
  br i1 %34, label %35, label %38

35:                                               ; preds = %32
  %36 = load ptr, ptr %8, align 8, !tbaa !3
  %37 = call i32 @u_strlen_77(ptr noundef %36)
  store i32 %37, ptr %9, align 4, !tbaa !8
  br label %38

38:                                               ; preds = %35, %32
  %39 = load i32, ptr %9, align 4, !tbaa !8
  %40 = icmp eq i32 %39, 0
  br i1 %40, label %41, label %43

41:                                               ; preds = %38
  %42 = load ptr, ptr %6, align 8, !tbaa !3
  store ptr %42, ptr %5, align 8
  store i32 1, ptr %17, align 4
  br label %144

43:                                               ; preds = %38
  %44 = load ptr, ptr %8, align 8, !tbaa !3
  %45 = load i32, ptr %9, align 4, !tbaa !8
  %46 = sext i32 %45 to i64
  %47 = getelementptr inbounds i16, ptr %44, i64 %46
  store ptr %47, ptr %14, align 8, !tbaa !3
  %48 = load ptr, ptr %14, align 8, !tbaa !3
  %49 = getelementptr inbounds i16, ptr %48, i32 -1
  store ptr %49, ptr %14, align 8, !tbaa !3
  %50 = load i16, ptr %49, align 2, !tbaa !10
  store i16 %50, ptr %16, align 2, !tbaa !10
  %51 = load i32, ptr %9, align 4, !tbaa !8
  %52 = add nsw i32 %51, -1
  store i32 %52, ptr %9, align 4, !tbaa !8
  %53 = load i32, ptr %9, align 4, !tbaa !8
  %54 = icmp eq i32 %53, 0
  br i1 %54, label %55, label %74

55:                                               ; preds = %43
  %56 = load i16, ptr %16, align 2, !tbaa !10
  %57 = zext i16 %56 to i32
  %58 = and i32 %57, -2048
  %59 = icmp eq i32 %58, 55296
  br i1 %59, label %74, label %60

60:                                               ; preds = %55
  %61 = load i32, ptr %7, align 4, !tbaa !8
  %62 = icmp slt i32 %61, 0
  br i1 %62, label %63, label %67

63:                                               ; preds = %60
  %64 = load ptr, ptr %6, align 8, !tbaa !3
  %65 = load i16, ptr %16, align 2, !tbaa !10
  %66 = call ptr @u_strrchr_77(ptr noundef %64, i16 noundef zeroext %65)
  br label %72

67:                                               ; preds = %60
  %68 = load ptr, ptr %6, align 8, !tbaa !3
  %69 = load i16, ptr %16, align 2, !tbaa !10
  %70 = load i32, ptr %7, align 4, !tbaa !8
  %71 = call ptr @u_memrchr_77(ptr noundef %68, i16 noundef zeroext %69, i32 noundef %70)
  br label %72

72:                                               ; preds = %67, %63
  %73 = phi ptr [ %66, %63 ], [ %71, %67 ]
  store ptr %73, ptr %5, align 8
  store i32 1, ptr %17, align 4
  br label %144

74:                                               ; preds = %55, %43
  %75 = load i32, ptr %7, align 4, !tbaa !8
  %76 = icmp slt i32 %75, 0
  br i1 %76, label %77, label %80

77:                                               ; preds = %74
  %78 = load ptr, ptr %6, align 8, !tbaa !3
  %79 = call i32 @u_strlen_77(ptr noundef %78)
  store i32 %79, ptr %7, align 4, !tbaa !8
  br label %80

80:                                               ; preds = %77, %74
  %81 = load i32, ptr %7, align 4, !tbaa !8
  %82 = load i32, ptr %9, align 4, !tbaa !8
  %83 = icmp sle i32 %81, %82
  br i1 %83, label %84, label %85

84:                                               ; preds = %80
  store ptr null, ptr %5, align 8
  store i32 1, ptr %17, align 4
  br label %144

85:                                               ; preds = %80
  %86 = load ptr, ptr %6, align 8, !tbaa !3
  store ptr %86, ptr %10, align 8, !tbaa !3
  %87 = load ptr, ptr %6, align 8, !tbaa !3
  %88 = load i32, ptr %7, align 4, !tbaa !8
  %89 = sext i32 %88 to i64
  %90 = getelementptr inbounds i16, ptr %87, i64 %89
  store ptr %90, ptr %11, align 8, !tbaa !3
  %91 = load i32, ptr %9, align 4, !tbaa !8
  %92 = load ptr, ptr %6, align 8, !tbaa !3
  %93 = sext i32 %91 to i64
  %94 = getelementptr inbounds i16, ptr %92, i64 %93
  store ptr %94, ptr %6, align 8, !tbaa !3
  br label %95

95:                                               ; preds = %142, %85
  %96 = load ptr, ptr %6, align 8, !tbaa !3
  %97 = load ptr, ptr %11, align 8, !tbaa !3
  %98 = icmp ne ptr %96, %97
  br i1 %98, label %99, label %143

99:                                               ; preds = %95
  %100 = load ptr, ptr %11, align 8, !tbaa !3
  %101 = getelementptr inbounds i16, ptr %100, i32 -1
  store ptr %101, ptr %11, align 8, !tbaa !3
  %102 = load i16, ptr %101, align 2, !tbaa !10
  store i16 %102, ptr %15, align 2, !tbaa !10
  %103 = load i16, ptr %15, align 2, !tbaa !10
  %104 = zext i16 %103 to i32
  %105 = load i16, ptr %16, align 2, !tbaa !10
  %106 = zext i16 %105 to i32
  %107 = icmp eq i32 %104, %106
  br i1 %107, label %108, label %142

108:                                              ; preds = %99
  %109 = load ptr, ptr %11, align 8, !tbaa !3
  store ptr %109, ptr %12, align 8, !tbaa !3
  %110 = load ptr, ptr %14, align 8, !tbaa !3
  store ptr %110, ptr %13, align 8, !tbaa !3
  br label %111

111:                                              ; preds = %140, %108
  %112 = load ptr, ptr %13, align 8, !tbaa !3
  %113 = load ptr, ptr %8, align 8, !tbaa !3
  %114 = icmp eq ptr %112, %113
  br i1 %114, label %115, label %129

115:                                              ; preds = %111
  %116 = load ptr, ptr %10, align 8, !tbaa !3
  %117 = load ptr, ptr %12, align 8, !tbaa !3
  %118 = load ptr, ptr %11, align 8, !tbaa !3
  %119 = getelementptr inbounds i16, ptr %118, i64 1
  %120 = load ptr, ptr %10, align 8, !tbaa !3
  %121 = load i32, ptr %7, align 4, !tbaa !8
  %122 = sext i32 %121 to i64
  %123 = getelementptr inbounds i16, ptr %120, i64 %122
  %124 = call noundef signext i8 @_ZL19isMatchAtCPBoundaryPKDsS0_S0_S0_(ptr noundef %116, ptr noundef %117, ptr noundef %119, ptr noundef %123)
  %125 = icmp ne i8 %124, 0
  br i1 %125, label %126, label %128

126:                                              ; preds = %115
  %127 = load ptr, ptr %12, align 8, !tbaa !3
  store ptr %127, ptr %5, align 8
  store i32 1, ptr %17, align 4
  br label %144

128:                                              ; preds = %115
  br label %141

129:                                              ; preds = %111
  %130 = load ptr, ptr %12, align 8, !tbaa !3
  %131 = getelementptr inbounds i16, ptr %130, i32 -1
  store ptr %131, ptr %12, align 8, !tbaa !3
  %132 = load i16, ptr %131, align 2, !tbaa !10
  %133 = zext i16 %132 to i32
  %134 = load ptr, ptr %13, align 8, !tbaa !3
  %135 = getelementptr inbounds i16, ptr %134, i32 -1
  store ptr %135, ptr %13, align 8, !tbaa !3
  %136 = load i16, ptr %135, align 2, !tbaa !10
  %137 = zext i16 %136 to i32
  %138 = icmp ne i32 %133, %137
  br i1 %138, label %139, label %140

139:                                              ; preds = %129
  br label %141

140:                                              ; preds = %129
  br label %111, !llvm.loop !24

141:                                              ; preds = %139, %128
  br label %142

142:                                              ; preds = %141, %99
  br label %95, !llvm.loop !25

143:                                              ; preds = %95
  store ptr null, ptr %5, align 8
  store i32 1, ptr %17, align 4
  br label %144

144:                                              ; preds = %143, %126, %84, %72, %41, %31, %23
  call void @llvm.lifetime.end.p0(i64 2, ptr %16) #7
  call void @llvm.lifetime.end.p0(i64 2, ptr %15) #7
  call void @llvm.lifetime.end.p0(i64 8, ptr %14) #7
  call void @llvm.lifetime.end.p0(i64 8, ptr %13) #7
  call void @llvm.lifetime.end.p0(i64 8, ptr %12) #7
  call void @llvm.lifetime.end.p0(i64 8, ptr %11) #7
  call void @llvm.lifetime.end.p0(i64 8, ptr %10) #7
  %145 = load ptr, ptr %5, align 8
  ret ptr %145
}