; Function Attrs: mustprogress nofree norecurse nosync nounwind willreturn memory(argmem: read) uwtable
define ptr @u_strFindLast_77(ptr noundef %0, i32 noundef %1, ptr noundef %2, i32 noundef %3) local_unnamed_addr #2 {
  %5 = icmp eq ptr %2, null
  %6 = icmp slt i32 %3, -1
  %or.cond = or i1 %5, %6
  br i1 %or.cond, label %_ZL19isMatchAtCPBoundaryPKDsS0_S0_S0_.exit, label %7

7:                                                ; preds = %4
  %8 = icmp eq ptr %0, null
  %9 = icmp slt i32 %1, -1
  %or.cond3 = or i1 %8, %9
  br i1 %or.cond3, label %_ZL19isMatchAtCPBoundaryPKDsS0_S0_S0_.exit, label %10

10:                                               ; preds = %7
  %11 = icmp slt i32 %3, 0
  br i1 %11, label %.preheader79, label %19

.preheader79:                                     ; preds = %10, %.preheader79
  %.0.i = phi ptr [ %13, %.preheader79 ], [ %2, %10 ]
  %12 = load i16, ptr %.0.i, align 2, !tbaa !3
  %.not.i = icmp eq i16 %12, 0
  %13 = getelementptr inbounds nuw i8, ptr %.0.i, i64 2
  br i1 %.not.i, label %u_strlen_77.exit, label %.preheader79, !llvm.loop !11

u_strlen_77.exit:                                 ; preds = %.preheader79
  %14 = ptrtoint ptr %.0.i to i64
  %15 = ptrtoint ptr %2 to i64
  %16 = sub i64 %14, %15
  %17 = lshr exact i64 %16, 1
  %18 = trunc i64 %17 to i32
  br label %19

19:                                               ; preds = %u_strlen_77.exit, %10
  %.054 = phi i32 [ %18, %u_strlen_77.exit ], [ %3, %10 ]
  %20 = icmp eq i32 %.054, 0
  br i1 %20, label %_ZL19isMatchAtCPBoundaryPKDsS0_S0_S0_.exit, label %21

21:                                               ; preds = %19
  %22 = sext i32 %.054 to i64
  %23 = getelementptr inbounds i16, ptr %2, i64 %22
  %24 = getelementptr inbounds i8, ptr %23, i64 -2
  %25 = load i16, ptr %24, align 2, !tbaa !3
  %26 = add nsw i32 %.054, -1
  %27 = icmp ne i32 %26, 0
  %28 = and i16 %25, -2048
  %29 = icmp eq i16 %28, -10240
  %or.cond63 = select i1 %27, i1 true, i1 %29
  %30 = icmp slt i32 %1, 0
  br i1 %or.cond63, label %46, label %31

31:                                               ; preds = %21
  br i1 %30, label %.preheader75, label %36

.preheader75:                                     ; preds = %31, %.preheader75
  %.07.i = phi ptr [ %35, %.preheader75 ], [ %0, %31 ]
  %.06.i = phi ptr [ %spec.select.i, %.preheader75 ], [ null, %31 ]
  %32 = load i16, ptr %.07.i, align 2, !tbaa !3
  %33 = icmp eq i16 %32, %25
  %spec.select.i = select i1 %33, ptr %.07.i, ptr %.06.i
  %34 = icmp eq i16 %32, 0
  %35 = getelementptr inbounds nuw i8, ptr %.07.i, i64 2
  br i1 %34, label %_ZL19isMatchAtCPBoundaryPKDsS0_S0_S0_.exit, label %.preheader75, !llvm.loop !19

36:                                               ; preds = %31
  %37 = icmp eq i32 %1, 0
  br i1 %37, label %_ZL19isMatchAtCPBoundaryPKDsS0_S0_S0_.exit, label %38

38:                                               ; preds = %36
  %39 = zext nneg i32 %1 to i64
  %40 = getelementptr inbounds nuw i16, ptr %0, i64 %39
  br label %41

41:                                               ; preds = %45, %38
  %.0.i65 = phi ptr [ %40, %38 ], [ %42, %45 ]
  %42 = getelementptr inbounds i8, ptr %.0.i65, i64 -2
  %43 = load i16, ptr %42, align 2, !tbaa !3
  %44 = icmp eq i16 %43, %25
  br i1 %44, label %_ZL19isMatchAtCPBoundaryPKDsS0_S0_S0_.exit, label %45

45:                                               ; preds = %41
  %.not.i66 = icmp eq ptr %0, %42
  br i1 %.not.i66, label %_ZL19isMatchAtCPBoundaryPKDsS0_S0_S0_.exit, label %41, !llvm.loop !20

46:                                               ; preds = %21
  br i1 %30, label %.preheader74, label %54

.preheader74:                                     ; preds = %46, %.preheader74
  %.0.i67 = phi ptr [ %48, %.preheader74 ], [ %0, %46 ]
  %47 = load i16, ptr %.0.i67, align 2, !tbaa !3
  %.not.i68 = icmp eq i16 %47, 0
  %48 = getelementptr inbounds nuw i8, ptr %.0.i67, i64 2
  br i1 %.not.i68, label %u_strlen_77.exit69, label %.preheader74, !llvm.loop !11

u_strlen_77.exit69:                               ; preds = %.preheader74
  %49 = ptrtoint ptr %.0.i67 to i64
  %50 = ptrtoint ptr %0 to i64
  %51 = sub i64 %49, %50
  %52 = lshr exact i64 %51, 1
  %53 = trunc i64 %52 to i32
  br label %54

54:                                               ; preds = %u_strlen_77.exit69, %46
  %.053 = phi i32 [ %53, %u_strlen_77.exit69 ], [ %1, %46 ]
  %.not.not = icmp slt i32 %.053, %.054
  br i1 %.not.not, label %_ZL19isMatchAtCPBoundaryPKDsS0_S0_S0_.exit, label %55

55:                                               ; preds = %54
  %56 = sext i32 %.053 to i64
  %57 = getelementptr inbounds i16, ptr %0, i64 %56
  %58 = sext i32 %26 to i64
  %59 = getelementptr inbounds i16, ptr %0, i64 %58
  %.not81 = icmp eq i32 %26, %.053
  br i1 %.not81, label %_ZL19isMatchAtCPBoundaryPKDsS0_S0_S0_.exit, label %.lr.ph.preheader

.lr.ph.preheader:                                 ; preds = %55
  %60 = and i16 %25, -1024
  %61 = icmp ne i16 %60, -10240
  %62 = icmp eq ptr %24, %2
  br label %.lr.ph

.lr.ph:                                           ; preds = %.lr.ph.preheader, %_ZL19isMatchAtCPBoundaryPKDsS0_S0_S0_.exit.thread
  %.05282 = phi ptr [ %63, %_ZL19isMatchAtCPBoundaryPKDsS0_S0_S0_.exit.thread ], [ %57, %.lr.ph.preheader ]
  %63 = getelementptr inbounds i8, ptr %.05282, i64 -2
  %64 = load i16, ptr %63, align 2, !tbaa !3
  %65 = icmp eq i16 %64, %25
  br i1 %65, label %.preheader.preheader, label %_ZL19isMatchAtCPBoundaryPKDsS0_S0_S0_.exit.thread

.preheader.preheader:                             ; preds = %.lr.ph
  br i1 %62, label %.preheader._crit_edge, label %.lr.ph103

.preheader:                                       ; preds = %.lr.ph103
  %66 = icmp eq ptr %81, %2
  br i1 %66, label %.preheader._crit_edge, label %.lr.ph103, !llvm.loop !21

.preheader._crit_edge:                            ; preds = %.preheader, %.preheader.preheader
  %.lcssa = phi i16 [ %25, %.preheader.preheader ], [ %80, %.preheader ]
  %.051.lcssa = phi ptr [ %63, %.preheader.preheader ], [ %79, %.preheader ]
  %67 = and i16 %.lcssa, -1024
  %68 = icmp ne i16 %67, -9216
  %.not.i70 = icmp eq ptr %0, %.051.lcssa
  %or.cond.i = or i1 %.not.i70, %68
  br i1 %or.cond.i, label %74, label %69

69:                                               ; preds = %.preheader._crit_edge
  %70 = getelementptr inbounds i8, ptr %.051.lcssa, i64 -2
  %71 = load i16, ptr %70, align 2, !tbaa !3
  %72 = and i16 %71, -1024
  %73 = icmp eq i16 %72, -10240
  br i1 %73, label %_ZL19isMatchAtCPBoundaryPKDsS0_S0_S0_.exit.thread, label %74

74:                                               ; preds = %69, %.preheader._crit_edge
  %.not10.i = icmp eq ptr %.05282, %57
  %or.cond11.i = or i1 %.not10.i, %61
  br i1 %or.cond11.i, label %_ZL19isMatchAtCPBoundaryPKDsS0_S0_S0_.exit, label %75

75:                                               ; preds = %74
  %76 = load i16, ptr %.05282, align 2, !tbaa !3
  %77 = and i16 %76, -1024
  %78 = icmp eq i16 %77, -9216
  br i1 %78, label %_ZL19isMatchAtCPBoundaryPKDsS0_S0_S0_.exit.thread, label %_ZL19isMatchAtCPBoundaryPKDsS0_S0_S0_.exit

.lr.ph103:                                        ; preds = %.preheader.preheader, %.preheader
  %.050102 = phi ptr [ %81, %.preheader ], [ %24, %.preheader.preheader ]
  %.051101 = phi ptr [ %79, %.preheader ], [ %63, %.preheader.preheader ]
  %79 = getelementptr inbounds i8, ptr %.051101, i64 -2
  %80 = load i16, ptr %79, align 2, !tbaa !3
  %81 = getelementptr inbounds i8, ptr %.050102, i64 -2
  %82 = load i16, ptr %81, align 2, !tbaa !3
  %.not60 = icmp eq i16 %80, %82
  br i1 %.not60, label %.preheader, label %_ZL19isMatchAtCPBoundaryPKDsS0_S0_S0_.exit.thread, !llvm.loop !21

_ZL19isMatchAtCPBoundaryPKDsS0_S0_S0_.exit.thread: ; preds = %.lr.ph103, %75, %69, %.lr.ph
  %.not = icmp eq ptr %59, %63
  br i1 %.not, label %_ZL19isMatchAtCPBoundaryPKDsS0_S0_S0_.exit, label %.lr.ph, !llvm.loop !22

_ZL19isMatchAtCPBoundaryPKDsS0_S0_S0_.exit:       ; preds = %45, %41, %.preheader75, %_ZL19isMatchAtCPBoundaryPKDsS0_S0_S0_.exit.thread, %74, %75, %55, %36, %54, %19, %7, %4
  %.0 = phi ptr [ %0, %4 ], [ null, %7 ], [ %0, %19 ], [ null, %54 ], [ null, %36 ], [ null, %55 ], [ null, %_ZL19isMatchAtCPBoundaryPKDsS0_S0_S0_.exit.thread ], [ %.051.lcssa, %74 ], [ %.051.lcssa, %75 ], [ %spec.select.i, %.preheader75 ], [ null, %45 ], [ %42, %41 ]
  ret ptr %.0
}